	.file	"4-3.c"
	.text
	.globl	fact
	.type	fact, @function
fact:
.LFB11:
	.cfi_startproc
	cmpq	$1, %rdi
	jle	.L3
	pushq	%rbx
	.cfi_def_cfa_offset 16
	.cfi_offset 3, -16
	movq	%rdi, %rbx
	leaq	-1(%rdi), %rdi
	call	fact
	imulq	%rbx, %rax
	popq	%rbx
	.cfi_def_cfa_offset 8
	ret
.L3:
	.cfi_restore 3
	movl	$1, %eax
	ret
	.cfi_endproc
.LFE11:
	.size	fact, .-fact
	.section	.rodata.str1.1,"aMS",@progbits,1
.LC0:
	.string	"%ld\n"
	.text
	.globl	main
	.type	main, @function
main:
.LFB12:
	.cfi_startproc
	subq	$8, %rsp
	.cfi_def_cfa_offset 16
	movl	$3, %edi
	call	fact
	movq	%rax, %rsi
	leaq	.LC0(%rip), %rdi
	movl	$0, %eax
	call	printf@PLT
	movl	$5, %edi
	call	fact
	movq	%rax, %rsi
	leaq	.LC0(%rip), %rdi
	movl	$0, %eax
	call	printf@PLT
	movl	$2, %edi
	call	fact
	movq	%rax, %rsi
	leaq	.LC0(%rip), %rdi
	movl	$0, %eax
	call	printf@PLT
	movl	$4, %edi
	call	fact
	movq	%rax, %rsi
	leaq	.LC0(%rip), %rdi
	movl	$0, %eax
	call	printf@PLT
	movl	$0, %eax
	addq	$8, %rsp
	.cfi_def_cfa_offset 8
	ret
	.cfi_endproc
.LFE12:
	.size	main, .-main
	.ident	"GCC: (GNU) 10.2.0"
	.section	.note.GNU-stack,"",@progbits
